target datalayout = "e-m:e-p270:32:32-p271:32:32-p272:64:64-i64:64-i128:128-f80:128-n8:16:32:64-S128"
target triple = "x86_64-pc-linux-gnu"

%"class.pbrt::FloatTexture" = type { %"class.pbrt::TaggedPointer.2" }
%"class.pbrt::TaggedPointer.2" = type { i64 }
%"class.pstd::pmr::polymorphic_allocator.14" = type { ptr }
%"class.pbrt::MeasuredMaterial" = type { %"class.pbrt::FloatTexture", ptr, ptr }

; Function Attrs: mustprogress nounwind uwtable
define linkonce_odr dso_local void @_ZN4pbrt13TaggedPointerIJNS_17FloatImageTextureENS_20GPUFloatImageTextureENS_15FloatMixTextureENS_24FloatDirectionMixTextureENS_18FloatScaledTextureENS_20FloatConstantTextureENS_18FloatBilerpTextureENS_24FloatCheckerboardTextureENS_16FloatDotsTextureENS_10FBmTextureENS_16FloatPtexTextureENS_19GPUFloatPtexTextureENS_12WindyTextureENS_15WrinkledTextureEEEC2ERKSF_(ptr noundef nonnull align 8 dereferenceable(8) %0, ptr noundef nonnull align 8 dereferenceable(8) %1) unnamed_addr #6 comdat align 2 {
  %3 = alloca ptr, align 8
  %4 = alloca ptr, align 8
  store ptr %0, ptr %3, align 8, !tbaa !133
  store ptr %1, ptr %4, align 8, !tbaa !133
  %5 = load ptr, ptr %3, align 8
  %6 = getelementptr inbounds nuw %"class.pbrt::TaggedPointer.2", ptr %5, i32 0, i32 0
  store i64 0, ptr %6, align 8, !tbaa !135
  %7 = load ptr, ptr %4, align 8, !tbaa !133
  %8 = getelementptr inbounds nuw %"class.pbrt::TaggedPointer.2", ptr %7, i32 0, i32 0
  %9 = load i64, ptr %8, align 8, !tbaa !135
  %10 = getelementptr inbounds nuw %"class.pbrt::TaggedPointer.2", ptr %5, i32 0, i32 0
  store i64 %9, ptr %10, align 8, !tbaa !135
  ret void
}

; Function Attrs: inlinehint mustprogress uwtable
define linkonce_odr dso_local void @_ZN4pbrt12FloatTextureC2ERKS0_(ptr noundef nonnull align 8 dereferenceable(8) %0, ptr noundef nonnull align 8 dereferenceable(8) %1) unnamed_addr #4 comdat align 2 {
  %3 = alloca ptr, align 8
  %4 = alloca ptr, align 8
  store ptr %0, ptr %3, align 8, !tbaa !48
  store ptr %1, ptr %4, align 8, !tbaa !48
  %5 = load ptr, ptr %3, align 8
  %6 = load ptr, ptr %4, align 8, !tbaa !48
  call void @_ZN4pbrt13TaggedPointerIJNS_17FloatImageTextureENS_20GPUFloatImageTextureENS_15FloatMixTextureENS_24FloatDirectionMixTextureENS_18FloatScaledTextureENS_20FloatConstantTextureENS_18FloatBilerpTextureENS_24FloatCheckerboardTextureENS_16FloatDotsTextureENS_10FBmTextureENS_16FloatPtexTextureENS_19GPUFloatPtexTextureENS_12WindyTextureENS_15WrinkledTextureEEEC2ERKSF_(ptr noundef nonnull align 8 dereferenceable(8) %5, ptr noundef nonnull align 8 dereferenceable(8) %6)
  ret void
}

; Function Attrs: mustprogress uwtable
define dso_local void @_ZN4pbrt16MeasuredMaterialC2ERKNSt7__cxx1112basic_stringIcSt11char_traitsIcESaIcEEENS_12FloatTextureEPNS_5ImageEN4pstd3pmr21polymorphic_allocatorISt4byteEE(ptr noundef nonnull align 8 dereferenceable(24) %0, ptr noundef nonnull align 8 dereferenceable(32) %1, ptr noundef %2, ptr noundef %3, ptr %4) unnamed_addr #1 align 2 {
  %6 = alloca %"class.pstd::pmr::polymorphic_allocator.14", align 8
  %7 = alloca ptr, align 8
  %8 = alloca ptr, align 8
  %9 = alloca ptr, align 8
  %10 = alloca ptr, align 8
  %11 = alloca %"class.pstd::pmr::polymorphic_allocator.14", align 8
  %12 = getelementptr inbounds nuw %"class.pstd::pmr::polymorphic_allocator.14", ptr %6, i32 0, i32 0
  store ptr %4, ptr %12, align 8
  store ptr %0, ptr %7, align 8, !tbaa !198
  store ptr %1, ptr %8, align 8, !tbaa !89
  store ptr %2, ptr %9, align 8, !tbaa !48
  store ptr %3, ptr %10, align 8, !tbaa !113
  %13 = load ptr, ptr %7, align 8
  %14 = getelementptr inbounds nuw %"class.pbrt::MeasuredMaterial", ptr %13, i32 0, i32 0
  call void @_ZN4pbrt12FloatTextureC2ERKS0_(ptr noundef nonnull align 8 dereferenceable(8) %14, ptr noundef nonnull align 8 dereferenceable(8) %2)
  %15 = getelementptr inbounds nuw %"class.pbrt::MeasuredMaterial", ptr %13, i32 0, i32 1
  %16 = load ptr, ptr %10, align 8, !tbaa !113
  store ptr %16, ptr %15, align 8, !tbaa !200
  %17 = load ptr, ptr %8, align 8, !tbaa !89
  call void @llvm.memcpy.p0.p0.i64(ptr align 8 %11, ptr align 8 %6, i64 8, i1 false), !tbaa.struct !116
  %18 = getelementptr inbounds nuw %"class.pstd::pmr::polymorphic_allocator.14", ptr %11, i32 0, i32 0
  %19 = load ptr, ptr %18, align 8
  %20 = call noundef ptr @_ZN4pbrt12MeasuredBxDF16BRDFDataFromFileERKNSt7__cxx1112basic_stringIcSt11char_traitsIcESaIcEEEN4pstd3pmr21polymorphic_allocatorISt4byteEE(ptr noundef nonnull align 8 dereferenceable(32) %17, ptr %19)
  %21 = getelementptr inbounds nuw %"class.pbrt::MeasuredMaterial", ptr %13, i32 0, i32 2
  store ptr %20, ptr %21, align 8, !tbaa !203
  ret void
}