; Function Attrs: mustprogress uwtable
define dso_local void @_ZN4pbrt16MeasuredMaterialC2ERKNSt7__cxx1112basic_stringIcSt11char_traitsIcESaIcEEENS_12FloatTextureEPNS_5ImageEN4pstd3pmr21polymorphic_allocatorISt4byteEE(ptr noundef nonnull writeonly align 8 captures(none) dereferenceable(24) initializes((0, 24)) %0, ptr noundef nonnull align 8 dereferenceable(32) %1, ptr noundef readonly captures(none) %2, ptr noundef %3, ptr %4) unnamed_addr #4 align 2 {
  store i64 0, ptr %0, align 8, !tbaa !18
  %6 = load i64, ptr %2, align 8, !tbaa !18
  store i64 %6, ptr %0, align 8, !tbaa !18
  %7 = getelementptr inbounds nuw i8, ptr %0, i64 8
  store ptr %3, ptr %7, align 8, !tbaa !170
  %8 = tail call noundef ptr @_ZN4pbrt12MeasuredBxDF16BRDFDataFromFileERKNSt7__cxx1112basic_stringIcSt11char_traitsIcESaIcEEEN4pstd3pmr21polymorphic_allocatorISt4byteEE(ptr noundef nonnull align 8 dereferenceable(32) %1, ptr %4)
  %9 = getelementptr inbounds nuw i8, ptr %0, i64 16
  store ptr %8, ptr %9, align 8, !tbaa !173
  ret void
}